target datalayout = "e-m:e-p270:32:32-p271:32:32-p272:64:64-i64:64-i128:128-f80:128-n8:16:32:64-S128"
target triple = "x86_64-unknown-linux-gnu"

; Function Attrs: mustprogress nounwind uwtable
define hidden void @_ZN18OpenImageIO_v2_6_09IffOutput17compress_verbatimERPKhRPhi(ptr noundef nonnull align 8 dereferenceable(376) %this, ptr noundef nonnull align 8 dereferenceable(8) %in, ptr noundef nonnull align 8 dereferenceable(8) %out, i32 noundef %size) #4 align 2 {
entry:
  %this.addr = alloca ptr, align 8
  %in.addr = alloca ptr, align 8
  %out.addr = alloca ptr, align 8
  %size.addr = alloca i32, align 4
  %count = alloca i32, align 4
  %byte = alloca i8, align 1
  store ptr %this, ptr %this.addr, align 8
  store ptr %in, ptr %in.addr, align 8
  store ptr %out, ptr %out.addr, align 8
  store i32 %size, ptr %size.addr, align 4
  store i32 1, ptr %count, align 4
  store i8 0, ptr %byte, align 1
  br label %for.cond

for.cond:                                         ; preds = %for.inc, %entry
  %0 = load i32, ptr %count, align 4
  %1 = load i32, ptr %size.addr, align 4
  %cmp = icmp slt i32 %0, %1
  br i1 %cmp, label %for.body, label %for.end

for.body:                                         ; preds = %for.cond
  %2 = load ptr, ptr %in.addr, align 8
  %3 = load ptr, ptr %2, align 8
  %4 = load i32, ptr %count, align 4
  %sub = sub nsw i32 %4, 1
  %idxprom = sext i32 %sub to i64
  %arrayidx = getelementptr inbounds i8, ptr %3, i64 %idxprom
  %5 = load i8, ptr %arrayidx, align 1
  %conv = zext i8 %5 to i32
  %6 = load ptr, ptr %in.addr, align 8
  %7 = load ptr, ptr %6, align 8
  %8 = load i32, ptr %count, align 4
  %idxprom2 = sext i32 %8 to i64
  %arrayidx3 = getelementptr inbounds i8, ptr %7, i64 %idxprom2
  %9 = load i8, ptr %arrayidx3, align 1
  %conv4 = zext i8 %9 to i32
  %cmp5 = icmp eq i32 %conv, %conv4
  br i1 %cmp5, label %if.then, label %if.end14

if.then:                                          ; preds = %for.body
  %10 = load i8, ptr %byte, align 1
  %conv6 = zext i8 %10 to i32
  %11 = load ptr, ptr %in.addr, align 8
  %12 = load ptr, ptr %11, align 8
  %13 = load i32, ptr %count, align 4
  %sub7 = sub nsw i32 %13, 1
  %idxprom8 = sext i32 %sub7 to i64
  %arrayidx9 = getelementptr inbounds i8, ptr %12, i64 %idxprom8
  %14 = load i8, ptr %arrayidx9, align 1
  %conv10 = zext i8 %14 to i32
  %cmp11 = icmp eq i32 %conv6, %conv10
  br i1 %cmp11, label %if.then12, label %if.end

if.then12:                                        ; preds = %if.then
  %15 = load i32, ptr %count, align 4
  %sub13 = sub nsw i32 %15, 2
  store i32 %sub13, ptr %count, align 4
  br label %for.end

if.end:                                           ; preds = %if.then
  br label %if.end14

if.end14:                                         ; preds = %if.end, %for.body
  %16 = load ptr, ptr %in.addr, align 8
  %17 = load ptr, ptr %16, align 8
  %18 = load i32, ptr %count, align 4
  %sub15 = sub nsw i32 %18, 1
  %idxprom16 = sext i32 %sub15 to i64
  %arrayidx17 = getelementptr inbounds i8, ptr %17, i64 %idxprom16
  %19 = load i8, ptr %arrayidx17, align 1
  store i8 %19, ptr %byte, align 1
  br label %for.inc

for.inc:                                          ; preds = %if.end14
  %20 = load i32, ptr %count, align 4
  %inc = add nsw i32 %20, 1
  store i32 %inc, ptr %count, align 4
  br label %for.cond, !llvm.loop !23

for.end:                                          ; preds = %if.then12, %for.cond
  %21 = load i32, ptr %count, align 4
  %sub18 = sub nsw i32 %21, 1
  %conv19 = trunc i32 %sub18 to i8
  %22 = load ptr, ptr %out.addr, align 8
  %23 = load ptr, ptr %22, align 8
  %incdec.ptr = getelementptr inbounds i8, ptr %23, i32 1
  store ptr %incdec.ptr, ptr %22, align 8
  store i8 %conv19, ptr %23, align 1
  %24 = load ptr, ptr %out.addr, align 8
  %25 = load ptr, ptr %24, align 8
  %26 = load ptr, ptr %in.addr, align 8
  %27 = load ptr, ptr %26, align 8
  %28 = load i32, ptr %count, align 4
  %conv20 = sext i32 %28 to i64
  call void @llvm.memcpy.p0.p0.i64(ptr align 1 %25, ptr align 1 %27, i64 %conv20, i1 false)
  %29 = load i32, ptr %count, align 4
  %30 = load ptr, ptr %out.addr, align 8
  %31 = load ptr, ptr %30, align 8
  %idx.ext = sext i32 %29 to i64
  %add.ptr = getelementptr inbounds i8, ptr %31, i64 %idx.ext
  store ptr %add.ptr, ptr %30, align 8
  %32 = load i32, ptr %count, align 4
  %33 = load ptr, ptr %in.addr, align 8
  %34 = load ptr, ptr %33, align 8
  %idx.ext21 = sext i32 %32 to i64
  %add.ptr22 = getelementptr inbounds i8, ptr %34, i64 %idx.ext21
  store ptr %add.ptr22, ptr %33, align 8
  ret void
}

; Function Attrs: mustprogress nounwind uwtable
define hidden void @_ZN18OpenImageIO_v2_6_09IffOutput18compress_duplicateERPKhRPhi(ptr noundef nonnull align 8 dereferenceable(376) %this, ptr noundef nonnull align 8 dereferenceable(8) %in, ptr noundef nonnull align 8 dereferenceable(8) %out, i32 noundef %size) #4 align 2 {
entry:
  %this.addr = alloca ptr, align 8
  %in.addr = alloca ptr, align 8
  %out.addr = alloca ptr, align 8
  %size.addr = alloca i32, align 4
  %count = alloca i32, align 4
  %run = alloca i8, align 1
  %length = alloca i32, align 4
  store ptr %this, ptr %this.addr, align 8
  store ptr %in, ptr %in.addr, align 8
  store ptr %out, ptr %out.addr, align 8
  store i32 %size, ptr %size.addr, align 4
  store i32 1, ptr %count, align 4
  br label %for.cond

for.cond:                                         ; preds = %for.inc, %entry
  %0 = load i32, ptr %count, align 4
  %1 = load i32, ptr %size.addr, align 4
  %cmp = icmp slt i32 %0, %1
  br i1 %cmp, label %for.body, label %for.end

for.body:                                         ; preds = %for.cond
  %2 = load ptr, ptr %in.addr, align 8
  %3 = load ptr, ptr %2, align 8
  %4 = load i32, ptr %count, align 4
  %sub = sub nsw i32 %4, 1
  %idxprom = sext i32 %sub to i64
  %arrayidx = getelementptr inbounds i8, ptr %3, i64 %idxprom
  %5 = load i8, ptr %arrayidx, align 1
  %conv = zext i8 %5 to i32
  %6 = load ptr, ptr %in.addr, align 8
  %7 = load ptr, ptr %6, align 8
  %8 = load i32, ptr %count, align 4
  %idxprom2 = sext i32 %8 to i64
  %arrayidx3 = getelementptr inbounds i8, ptr %7, i64 %idxprom2
  %9 = load i8, ptr %arrayidx3, align 1
  %conv4 = zext i8 %9 to i32
  %cmp5 = icmp ne i32 %conv, %conv4
  br i1 %cmp5, label %if.then, label %if.end

if.then:                                          ; preds = %for.body
  br label %for.end

if.end:                                           ; preds = %for.body
  br label %for.inc

for.inc:                                          ; preds = %if.end
  %10 = load i32, ptr %count, align 4
  %inc = add nsw i32 %10, 1
  store i32 %inc, ptr %count, align 4
  br label %for.cond, !llvm.loop !24

for.end:                                          ; preds = %if.then, %for.cond
  %11 = load i32, ptr %count, align 4
  %cmp6 = icmp sgt i32 %11, 1
  %frombool = zext i1 %cmp6 to i8
  store i8 %frombool, ptr %run, align 1
  %12 = load i8, ptr %run, align 1
  %tobool = trunc i8 %12 to i1
  br i1 %tobool, label %cond.true, label %cond.false

cond.true:                                        ; preds = %for.end
  br label %cond.end

cond.false:                                       ; preds = %for.end
  %13 = load i32, ptr %count, align 4
  br label %cond.end

cond.end:                                         ; preds = %cond.false, %cond.true
  %cond = phi i32 [ 1, %cond.true ], [ %13, %cond.false ]
  store i32 %cond, ptr %length, align 4
  %14 = load i32, ptr %count, align 4
  %sub7 = sub nsw i32 %14, 1
  %and = and i32 %sub7, 127
  %15 = load i8, ptr %run, align 1
  %tobool8 = trunc i8 %15 to i1
  %conv9 = zext i1 %tobool8 to i32
  %shl = shl i32 %conv9, 7
  %or = or i32 %and, %shl
  %conv10 = trunc i32 %or to i8
  %16 = load ptr, ptr %out.addr, align 8
  %17 = load ptr, ptr %16, align 8
  %incdec.ptr = getelementptr inbounds i8, ptr %17, i32 1
  store ptr %incdec.ptr, ptr %16, align 8
  store i8 %conv10, ptr %17, align 1
  %18 = load ptr, ptr %in.addr, align 8
  %19 = load ptr, ptr %18, align 8
  %20 = load i8, ptr %19, align 1
  %21 = load ptr, ptr %out.addr, align 8
  %22 = load ptr, ptr %21, align 8
  store i8 %20, ptr %22, align 1
  %23 = load i32, ptr %length, align 4
  %24 = load ptr, ptr %out.addr, align 8
  %25 = load ptr, ptr %24, align 8
  %idx.ext = sext i32 %23 to i64
  %add.ptr = getelementptr inbounds i8, ptr %25, i64 %idx.ext
  store ptr %add.ptr, ptr %24, align 8
  %26 = load i32, ptr %count, align 4
  %27 = load ptr, ptr %in.addr, align 8
  %28 = load ptr, ptr %27, align 8
  %idx.ext11 = sext i32 %26 to i64
  %add.ptr12 = getelementptr inbounds i8, ptr %28, i64 %idx.ext11
  store ptr %add.ptr12, ptr %27, align 8
  ret void
}

; Function Attrs: mustprogress nounwind uwtable
define linkonce_odr noundef nonnull align 4 dereferenceable(4) ptr @_ZSt3minIiERKT_S2_S2_(ptr noundef nonnull align 4 dereferenceable(4) %__a, ptr noundef nonnull align 4 dereferenceable(4) %__b) #4 comdat {
entry:
  %retval = alloca ptr, align 8
  %__a.addr = alloca ptr, align 8
  %__b.addr = alloca ptr, align 8
  store ptr %__a, ptr %__a.addr, align 8
  store ptr %__b, ptr %__b.addr, align 8
  %0 = load ptr, ptr %__b.addr, align 8
  %1 = load i32, ptr %0, align 4
  %2 = load ptr, ptr %__a.addr, align 8
  %3 = load i32, ptr %2, align 4
  %cmp = icmp slt i32 %1, %3
  br i1 %cmp, label %if.then, label %if.end

if.then:                                          ; preds = %entry
  %4 = load ptr, ptr %__b.addr, align 8
  store ptr %4, ptr %retval, align 8
  br label %return

if.end:                                           ; preds = %entry
  %5 = load ptr, ptr %__a.addr, align 8
  store ptr %5, ptr %retval, align 8
  br label %return

return:                                           ; preds = %if.end, %if.then
  %6 = load ptr, ptr %retval, align 8
  ret ptr %6
}

; Function Attrs: mustprogress uwtable
define hidden noundef i64 @_ZN18OpenImageIO_v2_6_09IffOutput20compress_rle_channelEPKhPhi(ptr noundef nonnull align 8 dereferenceable(376) %this, ptr noundef %in, ptr noundef %out, i32 noundef %size) #6 align 2 {
entry:
  %this.addr = alloca ptr, align 8
  %in.addr = alloca ptr, align 8
  %out.addr = alloca ptr, align 8
  %size.addr = alloca i32, align 4
  %_out = alloca ptr, align 8
  %end = alloca ptr, align 8
  %max = alloca i32, align 4
  %ref.tmp = alloca i32, align 4
  %ref.tmp2 = alloca i32, align 4
  %r = alloca i64, align 8
  store ptr %this, ptr %this.addr, align 8
  store ptr %in, ptr %in.addr, align 8
  store ptr %out, ptr %out.addr, align 8
  store i32 %size, ptr %size.addr, align 4
  %this1 = load ptr, ptr %this.addr, align 8
  %0 = load ptr, ptr %out.addr, align 8
  store ptr %0, ptr %_out, align 8
  %1 = load ptr, ptr %in.addr, align 8
  %2 = load i32, ptr %size.addr, align 4
  %idx.ext = sext i32 %2 to i64
  %add.ptr = getelementptr inbounds i8, ptr %1, i64 %idx.ext
  store ptr %add.ptr, ptr %end, align 8
  br label %while.cond

while.cond:                                       ; preds = %if.end11, %entry
  %3 = load ptr, ptr %in.addr, align 8
  %4 = load ptr, ptr %end, align 8
  %cmp = icmp ult ptr %3, %4
  br i1 %cmp, label %while.body, label %while.end

while.body:                                       ; preds = %while.cond
  store i32 128, ptr %ref.tmp, align 4
  %5 = load ptr, ptr %end, align 8
  %6 = load ptr, ptr %in.addr, align 8
  %sub.ptr.lhs.cast = ptrtoint ptr %5 to i64
  %sub.ptr.rhs.cast = ptrtoint ptr %6 to i64
  %sub.ptr.sub = sub i64 %sub.ptr.lhs.cast, %sub.ptr.rhs.cast
  %conv = trunc i64 %sub.ptr.sub to i32
  store i32 %conv, ptr %ref.tmp2, align 4
  %call = call noundef nonnull align 4 dereferenceable(4) ptr @_ZSt3minIiERKT_S2_S2_(ptr noundef nonnull align 4 dereferenceable(4) %ref.tmp, ptr noundef nonnull align 4 dereferenceable(4) %ref.tmp2)
  %7 = load i32, ptr %call, align 4
  store i32 %7, ptr %max, align 4
  %8 = load i32, ptr %max, align 4
  %cmp3 = icmp sgt i32 %8, 0
  br i1 %cmp3, label %if.then, label %if.end11

if.then:                                          ; preds = %while.body
  %9 = load ptr, ptr %in.addr, align 8
  %10 = load ptr, ptr %end, align 8
  %add.ptr4 = getelementptr inbounds i8, ptr %10, i64 -1
  %cmp5 = icmp ult ptr %9, %add.ptr4
  br i1 %cmp5, label %land.lhs.true, label %if.else

land.lhs.true:                                    ; preds = %if.then
  %11 = load ptr, ptr %in.addr, align 8
  %arrayidx = getelementptr inbounds i8, ptr %11, i64 0
  %12 = load i8, ptr %arrayidx, align 1
  %conv6 = zext i8 %12 to i32
  %13 = load ptr, ptr %in.addr, align 8
  %arrayidx7 = getelementptr inbounds i8, ptr %13, i64 1
  %14 = load i8, ptr %arrayidx7, align 1
  %conv8 = zext i8 %14 to i32
  %cmp9 = icmp eq i32 %conv6, %conv8
  br i1 %cmp9, label %if.then10, label %if.else

if.then10:                                        ; preds = %land.lhs.true
  %15 = load i32, ptr %max, align 4
  call void @_ZN18OpenImageIO_v2_6_09IffOutput18compress_duplicateERPKhRPhi(ptr noundef nonnull align 8 dereferenceable(376) %this1, ptr noundef nonnull align 8 dereferenceable(8) %in.addr, ptr noundef nonnull align 8 dereferenceable(8) %out.addr, i32 noundef %15)
  br label %if.end

if.else:                                          ; preds = %land.lhs.true, %if.then
  %16 = load i32, ptr %max, align 4
  call void @_ZN18OpenImageIO_v2_6_09IffOutput17compress_verbatimERPKhRPhi(ptr noundef nonnull align 8 dereferenceable(376) %this1, ptr noundef nonnull align 8 dereferenceable(8) %in.addr, ptr noundef nonnull align 8 dereferenceable(8) %out.addr, i32 noundef %16)
  br label %if.end

if.end:                                           ; preds = %if.else, %if.then10
  br label %if.end11

if.end11:                                         ; preds = %if.end, %while.body
  br label %while.cond, !llvm.loop !25

while.end:                                        ; preds = %while.cond
  %17 = load ptr, ptr %out.addr, align 8
  %18 = load ptr, ptr %_out, align 8
  %sub.ptr.lhs.cast12 = ptrtoint ptr %17 to i64
  %sub.ptr.rhs.cast13 = ptrtoint ptr %18 to i64
  %sub.ptr.sub14 = sub i64 %sub.ptr.lhs.cast12, %sub.ptr.rhs.cast13
  store i64 %sub.ptr.sub14, ptr %r, align 8
  %19 = load i64, ptr %r, align 8
  ret i64 %19
}