; Function Attrs: mustprogress nofree norecurse nosync nounwind memory(readwrite, inaccessiblemem: none) uwtable
define hidden noundef i64 @_ZN18OpenImageIO_v2_6_09IffOutput20compress_rle_channelEPKhPhi(ptr nocapture noundef nonnull readnone align 8 dereferenceable(376) %this, ptr noundef %in, ptr noundef %out, i32 noundef %size) local_unnamed_addr #8 align 2 {
entry:
  %idx.ext = sext i32 %size to i64
  %add.ptr = getelementptr inbounds i8, ptr %in, i64 %idx.ext
  %cmp33 = icmp sgt i32 %size, 0
  br i1 %cmp33, label %while.body.lr.ph, label %while.end

while.body.lr.ph:                                 ; preds = %entry
  %sub.ptr.lhs.cast = ptrtoint ptr %add.ptr to i64
  %add.ptr4 = getelementptr inbounds i8, ptr %add.ptr, i64 -1
  br label %while.body

while.body:                                       ; preds = %while.body.lr.ph, %if.end11
  %in.addr.035 = phi ptr [ %in, %while.body.lr.ph ], [ %in.addr.1, %if.end11 ]
  %out.addr.034 = phi ptr [ %out, %while.body.lr.ph ], [ %out.addr.1, %if.end11 ]
  %sub.ptr.rhs.cast = ptrtoint ptr %in.addr.035 to i64
  %sub.ptr.sub = sub i64 %sub.ptr.lhs.cast, %sub.ptr.rhs.cast
  %conv = trunc i64 %sub.ptr.sub to i32
  %.sroa.speculated = tail call i32 @llvm.smin.i32(i32 %conv, i32 128)
  %cmp3 = icmp sgt i32 %conv, 0
  br i1 %cmp3, label %if.then, label %if.end11

if.then:                                          ; preds = %while.body
  %cmp5 = icmp ult ptr %in.addr.035, %add.ptr4
  br i1 %cmp5, label %land.lhs.true, label %if.else

land.lhs.true:                                    ; preds = %if.then
  %0 = load i8, ptr %in.addr.035, align 1
  %arrayidx7 = getelementptr inbounds i8, ptr %in.addr.035, i64 1
  %1 = load i8, ptr %arrayidx7, align 1
  %cmp9 = icmp eq i8 %0, %1
  br i1 %cmp9, label %if.then10, label %if.else

if.then10:                                        ; preds = %land.lhs.true
  %cmp14.i.not = icmp eq i32 %conv, 1
  br i1 %cmp14.i.not, label %_ZN18OpenImageIO_v2_6_09IffOutput18compress_duplicateERPKhRPhi.exit, label %for.body.lr.ph.i

for.body.lr.ph.i:                                 ; preds = %if.then10
  %wide.trip.count.i = zext nneg i32 %.sroa.speculated to i64
  br label %for.body.i

for.body.i:                                       ; preds = %for.inc.i, %for.body.lr.ph.i
  %indvars.iv.i = phi i64 [ 1, %for.body.lr.ph.i ], [ %indvars.iv.next.i, %for.inc.i ]
  %2 = getelementptr i8, ptr %in.addr.035, i64 %indvars.iv.i
  %arrayidx.i = getelementptr i8, ptr %2, i64 -1
  %3 = load i8, ptr %arrayidx.i, align 1
  %4 = load i8, ptr %2, align 1
  %cmp5.not.i = icmp eq i8 %3, %4
  br i1 %cmp5.not.i, label %for.inc.i, label %for.end.split.loop.exit25.i

for.inc.i:                                        ; preds = %for.body.i
  %indvars.iv.next.i = add i64 %indvars.iv.i, 1
  %exitcond.not.i = icmp eq i64 %indvars.iv.next.i, %wide.trip.count.i
  br i1 %exitcond.not.i, label %for.end.i, label %for.body.i, !llvm.loop !22

for.end.split.loop.exit25.i:                      ; preds = %for.body.i
  %5 = trunc i64 %indvars.iv.i to i32
  %.pre = and i64 %indvars.iv.i, 4294967295
  br label %for.end.i

for.end.i:                                        ; preds = %for.inc.i, %for.end.split.loop.exit25.i
  %.pre-phi = phi i64 [ %.pre, %for.end.split.loop.exit25.i ], [ %wide.trip.count.i, %for.inc.i ]
  %count.0.lcssa.i = phi i32 [ %5, %for.end.split.loop.exit25.i ], [ %.sroa.speculated, %for.inc.i ]
  %cmp6.i = icmp ugt i32 %count.0.lcssa.i, 1
  %sub7.i = add nuw i32 %count.0.lcssa.i, 127
  %and.i = and i32 %sub7.i, 127
  %spec.select.i = select i1 %cmp6.i, i32 128, i32 0
  %6 = or disjoint i32 %and.i, %spec.select.i
  %7 = trunc i32 %6 to i8
  br label %_ZN18OpenImageIO_v2_6_09IffOutput18compress_duplicateERPKhRPhi.exit

_ZN18OpenImageIO_v2_6_09IffOutput18compress_duplicateERPKhRPhi.exit: ; preds = %if.then10, %for.end.i
  %count.0.lcssa23.i = phi i64 [ 1, %if.then10 ], [ %.pre-phi, %for.end.i ]
  %or.i = phi i8 [ 0, %if.then10 ], [ %7, %for.end.i ]
  %incdec.ptr.i = getelementptr inbounds i8, ptr %out.addr.034, i64 1
  store i8 %or.i, ptr %out.addr.034, align 1
  %8 = load i8, ptr %in.addr.035, align 1
  store i8 %8, ptr %incdec.ptr.i, align 1
  %add.ptr.i = getelementptr inbounds i8, ptr %out.addr.034, i64 2
  %add.ptr12.i = getelementptr inbounds i8, ptr %in.addr.035, i64 %count.0.lcssa23.i
  br label %if.end11

if.else:                                          ; preds = %land.lhs.true, %if.then
  %cmp19.i.not = icmp eq i32 %conv, 1
  br i1 %cmp19.i.not, label %_ZN18OpenImageIO_v2_6_09IffOutput17compress_verbatimERPKhRPhi.exit, label %for.body.lr.ph.i9

for.body.lr.ph.i9:                                ; preds = %if.else
  %invariant.gep.i = getelementptr i8, ptr %in.addr.035, i64 -1
  %wide.trip.count.i10 = zext nneg i32 %.sroa.speculated to i64
  br label %for.body.i11

for.body.i11:                                     ; preds = %if.end14.i, %for.body.lr.ph.i9
  %indvars.iv.i12 = phi i64 [ 1, %for.body.lr.ph.i9 ], [ %indvars.iv.next.i13, %if.end14.i ]
  %byte.021.i = phi i8 [ 0, %for.body.lr.ph.i9 ], [ %9, %if.end14.i ]
  %gep.i = getelementptr i8, ptr %invariant.gep.i, i64 %indvars.iv.i12
  %9 = load i8, ptr %gep.i, align 1
  %arrayidx3.i = getelementptr inbounds i8, ptr %in.addr.035, i64 %indvars.iv.i12
  %10 = load i8, ptr %arrayidx3.i, align 1
  %cmp5.i = icmp eq i8 %9, %10
  %cmp11.i = icmp eq i8 %byte.021.i, %9
  %or.cond.i = and i1 %cmp11.i, %cmp5.i
  br i1 %or.cond.i, label %if.then12.i, label %if.end14.i

if.then12.i:                                      ; preds = %for.body.i11
  %11 = trunc i64 %indvars.iv.i12 to i32
  %sub13.i = add nsw i32 %11, -2
  br label %_ZN18OpenImageIO_v2_6_09IffOutput17compress_verbatimERPKhRPhi.exit

if.end14.i:                                       ; preds = %for.body.i11
  %indvars.iv.next.i13 = add nuw nsw i64 %indvars.iv.i12, 1
  %exitcond.not.i14 = icmp eq i64 %indvars.iv.next.i13, %wide.trip.count.i10
  br i1 %exitcond.not.i14, label %_ZN18OpenImageIO_v2_6_09IffOutput17compress_verbatimERPKhRPhi.exit, label %for.body.i11, !llvm.loop !23

_ZN18OpenImageIO_v2_6_09IffOutput17compress_verbatimERPKhRPhi.exit: ; preds = %if.end14.i, %if.else, %if.then12.i
  %count.1.i = phi i32 [ %sub13.i, %if.then12.i ], [ 1, %if.else ], [ %.sroa.speculated, %if.end14.i ]
  %12 = trunc i32 %count.1.i to i8
  %conv19.i = add i8 %12, -1
  %incdec.ptr.i7 = getelementptr inbounds i8, ptr %out.addr.034, i64 1
  store i8 %conv19.i, ptr %out.addr.034, align 1
  %conv20.i = sext i32 %count.1.i to i64
  tail call void @llvm.memcpy.p0.p0.i64(ptr nonnull align 1 %incdec.ptr.i7, ptr align 1 %in.addr.035, i64 %conv20.i, i1 false)
  %add.ptr.i8 = getelementptr inbounds i8, ptr %incdec.ptr.i7, i64 %conv20.i
  %add.ptr22.i = getelementptr inbounds i8, ptr %in.addr.035, i64 %conv20.i
  br label %if.end11

if.end11:                                         ; preds = %_ZN18OpenImageIO_v2_6_09IffOutput18compress_duplicateERPKhRPhi.exit, %_ZN18OpenImageIO_v2_6_09IffOutput17compress_verbatimERPKhRPhi.exit, %while.body
  %out.addr.1 = phi ptr [ %add.ptr.i, %_ZN18OpenImageIO_v2_6_09IffOutput18compress_duplicateERPKhRPhi.exit ], [ %add.ptr.i8, %_ZN18OpenImageIO_v2_6_09IffOutput17compress_verbatimERPKhRPhi.exit ], [ %out.addr.034, %while.body ]
  %in.addr.1 = phi ptr [ %add.ptr12.i, %_ZN18OpenImageIO_v2_6_09IffOutput18compress_duplicateERPKhRPhi.exit ], [ %add.ptr22.i, %_ZN18OpenImageIO_v2_6_09IffOutput17compress_verbatimERPKhRPhi.exit ], [ %in.addr.035, %while.body ]
  %cmp = icmp ult ptr %in.addr.1, %add.ptr
  br i1 %cmp, label %while.body, label %while.end, !llvm.loop !24

while.end:                                        ; preds = %if.end11, %entry
  %out.addr.0.lcssa = phi ptr [ %out, %entry ], [ %out.addr.1, %if.end11 ]
  %sub.ptr.lhs.cast12 = ptrtoint ptr %out.addr.0.lcssa to i64
  %sub.ptr.rhs.cast13 = ptrtoint ptr %out to i64
  %sub.ptr.sub14 = sub i64 %sub.ptr.lhs.cast12, %sub.ptr.rhs.cast13
  ret i64 %sub.ptr.sub14
}